target datalayout = "e-m:e-p270:32:32-p271:32:32-p272:64:64-i64:64-i128:128-f80:128-n8:16:32:64-S128"
target triple = "x86_64-pc-linux-gnu"

%"class.arrow::DataType" = type { %"class.arrow::detail::Fingerprintable", %"class.std::enable_shared_from_this", i32, %"class.std::vector.19" }
%"class.arrow::detail::Fingerprintable" = type { ptr, %"struct.std::atomic.17", %"struct.std::atomic.17" }
%"struct.std::atomic.17" = type { %"struct.std::__atomic_base.18" }
%"struct.std::__atomic_base.18" = type { ptr }
%"class.std::enable_shared_from_this" = type { %"class.std::weak_ptr" }
%"class.std::weak_ptr" = type { %"class.std::__weak_ptr" }
%"class.std::__weak_ptr" = type { ptr, %"class.std::__weak_count" }
%"class.std::__weak_count" = type { ptr }
%"class.std::vector.19" = type { %"struct.std::_Vector_base.20" }
%"struct.std::_Vector_base.20" = type { %"struct.std::_Vector_base<std::shared_ptr<arrow::Field>, std::allocator<std::shared_ptr<arrow::Field>>>::_Vector_impl" }
%"struct.std::_Vector_base<std::shared_ptr<arrow::Field>, std::allocator<std::shared_ptr<arrow::Field>>>::_Vector_impl" = type { %"struct.std::_Vector_base<std::shared_ptr<arrow::Field>, std::allocator<std::shared_ptr<arrow::Field>>>::_Vector_impl_data" }
%"struct.std::_Vector_base<std::shared_ptr<arrow::Field>, std::allocator<std::shared_ptr<arrow::Field>>>::_Vector_impl_data" = type { ptr, ptr, ptr }
%"struct.arrow::ArraySpan" = type { ptr, i64, i64, i64, [3 x %"struct.arrow::BufferSpan"], %"class.std::vector.34" }
%"struct.arrow::BufferSpan" = type { ptr, i64, ptr }
%"class.std::vector.34" = type { %"struct.std::_Vector_base.35" }
%"struct.std::_Vector_base.35" = type { %"struct.std::_Vector_base<arrow::ArraySpan, std::allocator<arrow::ArraySpan>>::_Vector_impl" }
%"struct.std::_Vector_base<arrow::ArraySpan, std::allocator<arrow::ArraySpan>>::_Vector_impl" = type { %"struct.std::_Vector_base<arrow::ArraySpan, std::allocator<arrow::ArraySpan>>::_Vector_impl_data" }
%"struct.std::_Vector_base<arrow::ArraySpan, std::allocator<arrow::ArraySpan>>::_Vector_impl_data" = type { ptr, ptr, ptr }

; Function Attrs: mustprogress uwtable
define noundef i64 @_ZNK5arrow9ArraySpan12GetNullCountEv(ptr noundef nonnull align 8 dereferenceable(128) %0) #0 align 2 {
  %2 = alloca ptr, align 8
  %3 = alloca i64, align 8
  store ptr %0, ptr %2, align 8, !tbaa !81
  %4 = load ptr, ptr %2, align 8
  call void @llvm.lifetime.start.p0(i64 8, ptr %3) #20
  %5 = getelementptr inbounds nuw %"struct.arrow::ArraySpan", ptr %4, i32 0, i32 2
  %6 = load i64, ptr %5, align 8, !tbaa !90
  store i64 %6, ptr %3, align 8, !tbaa !8
  %7 = load i64, ptr %3, align 8, !tbaa !8
  %8 = icmp eq i64 %7, -1
  %9 = xor i1 %8, true
  %10 = xor i1 %9, true
  %11 = zext i1 %10 to i64
  %12 = call i64 @llvm.expect.i64(i64 %11, i64 0)
  %13 = icmp ne i64 %12, 0
  br i1 %13, label %14, label %37

14:                                               ; preds = %1
  %15 = getelementptr inbounds nuw %"struct.arrow::ArraySpan", ptr %4, i32 0, i32 4
  %16 = getelementptr inbounds [3 x %"struct.arrow::BufferSpan"], ptr %15, i64 0, i64 0
  %17 = getelementptr inbounds nuw %"struct.arrow::BufferSpan", ptr %16, i32 0, i32 0
  %18 = load ptr, ptr %17, align 8, !tbaa !92
  %19 = icmp ne ptr %18, null
  br i1 %19, label %20, label %33

20:                                               ; preds = %14
  %21 = getelementptr inbounds nuw %"struct.arrow::ArraySpan", ptr %4, i32 0, i32 1
  %22 = load i64, ptr %21, align 8, !tbaa !89
  %23 = getelementptr inbounds nuw %"struct.arrow::ArraySpan", ptr %4, i32 0, i32 4
  %24 = getelementptr inbounds [3 x %"struct.arrow::BufferSpan"], ptr %23, i64 0, i64 0
  %25 = getelementptr inbounds nuw %"struct.arrow::BufferSpan", ptr %24, i32 0, i32 0
  %26 = load ptr, ptr %25, align 8, !tbaa !92
  %27 = getelementptr inbounds nuw %"struct.arrow::ArraySpan", ptr %4, i32 0, i32 3
  %28 = load i64, ptr %27, align 8, !tbaa !91
  %29 = getelementptr inbounds nuw %"struct.arrow::ArraySpan", ptr %4, i32 0, i32 1
  %30 = load i64, ptr %29, align 8, !tbaa !89
  %31 = call noundef i64 @_ZN5arrow8internal12CountSetBitsEPKhll(ptr noundef %26, i64 noundef %28, i64 noundef %30)
  %32 = sub nsw i64 %22, %31
  store i64 %32, ptr %3, align 8, !tbaa !8
  br label %34

33:                                               ; preds = %14
  store i64 0, ptr %3, align 8, !tbaa !8
  br label %34

34:                                               ; preds = %33, %20
  %35 = load i64, ptr %3, align 8, !tbaa !8
  %36 = getelementptr inbounds nuw %"struct.arrow::ArraySpan", ptr %4, i32 0, i32 2
  store i64 %35, ptr %36, align 8, !tbaa !90
  br label %37

37:                                               ; preds = %34, %1
  %38 = load i64, ptr %3, align 8, !tbaa !8
  call void @llvm.lifetime.end.p0(i64 8, ptr %3) #20
  ret i64 %38
}

; Function Attrs: mustprogress nounwind uwtable
define linkonce_odr noundef i32 @_ZNK5arrow8DataType2idEv(ptr noundef nonnull align 8 dereferenceable(72) %0) #3 comdat align 2 {
  %2 = alloca ptr, align 8
  store ptr %0, ptr %2, align 8, !tbaa !10
  %3 = load ptr, ptr %2, align 8
  %4 = getelementptr inbounds nuw %"class.arrow::DataType", ptr %3, i32 0, i32 2
  %5 = load i32, ptr %4, align 8, !tbaa !109
  ret i32 %5
}

; Function Attrs: mustprogress uwtable
define noundef i64 @_ZNK5arrow9ArraySpan23ComputeLogicalNullCountEv(ptr noundef nonnull align 8 dereferenceable(128) %0) #0 align 2 {
  %2 = alloca i64, align 8
  %3 = alloca ptr, align 8
  %4 = alloca i32, align 4
  %5 = alloca i32, align 4
  store ptr %0, ptr %3, align 8, !tbaa !81
  %6 = load ptr, ptr %3, align 8
  call void @llvm.lifetime.start.p0(i64 4, ptr %4) #20
  %7 = getelementptr inbounds nuw %"struct.arrow::ArraySpan", ptr %6, i32 0, i32 0
  %8 = load ptr, ptr %7, align 8, !tbaa !83
  %9 = call noundef i32 @_ZNK5arrow8DataType2idEv(ptr noundef nonnull align 8 dereferenceable(72) %8)
  store i32 %9, ptr %4, align 4, !tbaa !94
  %10 = load i32, ptr %4, align 4, !tbaa !94
  %11 = icmp eq i32 %10, 27
  br i1 %11, label %12, label %14

12:                                               ; preds = %1
  %13 = call noundef i64 @_ZN5arrow10union_util27LogicalSparseUnionNullCountERKNS_9ArraySpanE(ptr noundef nonnull align 8 dereferenceable(128) %6)
  store i64 %13, ptr %2, align 8
  store i32 1, ptr %5, align 4
  br label %31

14:                                               ; preds = %1
  %15 = load i32, ptr %4, align 4, !tbaa !94
  %16 = icmp eq i32 %15, 28
  br i1 %16, label %17, label %19

17:                                               ; preds = %14
  %18 = call noundef i64 @_ZN5arrow10union_util26LogicalDenseUnionNullCountERKNS_9ArraySpanE(ptr noundef nonnull align 8 dereferenceable(128) %6)
  store i64 %18, ptr %2, align 8
  store i32 1, ptr %5, align 4
  br label %31

19:                                               ; preds = %14
  %20 = load i32, ptr %4, align 4, !tbaa !94
  %21 = icmp eq i32 %20, 38
  br i1 %21, label %22, label %24

22:                                               ; preds = %19
  %23 = call noundef i64 @_ZN5arrow8ree_util16LogicalNullCountERKNS_9ArraySpanE(ptr noundef nonnull align 8 dereferenceable(128) %6)
  store i64 %23, ptr %2, align 8
  store i32 1, ptr %5, align 4
  br label %31

24:                                               ; preds = %19
  %25 = load i32, ptr %4, align 4, !tbaa !94
  %26 = icmp eq i32 %25, 29
  br i1 %26, label %27, label %29

27:                                               ; preds = %24
  %28 = call noundef i64 @_ZN5arrow9dict_util16LogicalNullCountERKNS_9ArraySpanE(ptr noundef nonnull align 8 dereferenceable(128) %6)
  store i64 %28, ptr %2, align 8
  store i32 1, ptr %5, align 4
  br label %31

29:                                               ; preds = %24
  %30 = call noundef i64 @_ZNK5arrow9ArraySpan12GetNullCountEv(ptr noundef nonnull align 8 dereferenceable(128) %6)
  store i64 %30, ptr %2, align 8
  store i32 1, ptr %5, align 4
  br label %31

31:                                               ; preds = %29, %27, %22, %17, %12
  call void @llvm.lifetime.end.p0(i64 4, ptr %4) #20
  %32 = load i64, ptr %2, align 8
  ret i64 %32
}