; Function Attrs: mustprogress uwtable
define noundef i64 @_ZNK5arrow9ArraySpan23ComputeLogicalNullCountEv(ptr noundef nonnull align 8 dereferenceable(128) %0) local_unnamed_addr #0 align 2 {
  %2 = load ptr, ptr %0, align 8, !tbaa !70
  %3 = getelementptr inbounds nuw i8, ptr %2, i64 40
  %4 = load i32, ptr %3, align 8, !tbaa !71
  switch i32 %4, label %13 [
    i32 27, label %5
    i32 28, label %7
    i32 38, label %9
    i32 29, label %11
  ]

5:                                                ; preds = %1
  %6 = tail call noundef i64 @_ZN5arrow10union_util27LogicalSparseUnionNullCountERKNS_9ArraySpanE(ptr noundef nonnull align 8 dereferenceable(128) %0)
  br label %_ZNK5arrow9ArraySpan12GetNullCountEv.exit

7:                                                ; preds = %1
  %8 = tail call noundef i64 @_ZN5arrow10union_util26LogicalDenseUnionNullCountERKNS_9ArraySpanE(ptr noundef nonnull align 8 dereferenceable(128) %0)
  br label %_ZNK5arrow9ArraySpan12GetNullCountEv.exit

9:                                                ; preds = %1
  %10 = tail call noundef i64 @_ZN5arrow8ree_util16LogicalNullCountERKNS_9ArraySpanE(ptr noundef nonnull align 8 dereferenceable(128) %0)
  br label %_ZNK5arrow9ArraySpan12GetNullCountEv.exit

11:                                               ; preds = %1
  %12 = tail call noundef i64 @_ZN5arrow9dict_util16LogicalNullCountERKNS_9ArraySpanE(ptr noundef nonnull align 8 dereferenceable(128) %0)
  br label %_ZNK5arrow9ArraySpan12GetNullCountEv.exit

13:                                               ; preds = %1
  %14 = getelementptr inbounds nuw i8, ptr %0, i64 16
  %15 = load i64, ptr %14, align 8, !tbaa !57
  %16 = icmp eq i64 %15, -1
  br i1 %16, label %17, label %_ZNK5arrow9ArraySpan12GetNullCountEv.exit, !prof !89

17:                                               ; preds = %13
  %18 = getelementptr inbounds nuw i8, ptr %0, i64 32
  %19 = load ptr, ptr %18, align 8, !tbaa !68
  %.not.i = icmp eq ptr %19, null
  br i1 %.not.i, label %27, label %20

20:                                               ; preds = %17
  %21 = getelementptr inbounds nuw i8, ptr %0, i64 8
  %22 = load i64, ptr %21, align 8, !tbaa !90
  %23 = getelementptr inbounds nuw i8, ptr %0, i64 24
  %24 = load i64, ptr %23, align 8, !tbaa !65
  %25 = tail call noundef i64 @_ZN5arrow8internal12CountSetBitsEPKhll(ptr noundef nonnull %19, i64 noundef %24, i64 noundef %22)
  %26 = sub nsw i64 %22, %25
  br label %27

27:                                               ; preds = %20, %17
  %.1.i = phi i64 [ %26, %20 ], [ 0, %17 ]
  store i64 %.1.i, ptr %14, align 8, !tbaa !57
  br label %_ZNK5arrow9ArraySpan12GetNullCountEv.exit

_ZNK5arrow9ArraySpan12GetNullCountEv.exit:        ; preds = %27, %13, %11, %9, %7, %5
  %.0 = phi i64 [ %6, %5 ], [ %8, %7 ], [ %10, %9 ], [ %12, %11 ], [ %.1.i, %27 ], [ %15, %13 ]
  ret i64 %.0
}